target datalayout = "e-m:e-p270:32:32-p271:32:32-p272:64:64-i64:64-i128:128-f80:128-n8:16:32:64-S128"
target triple = "x86_64-pc-linux-gnu"

; Function Attrs: nounwind null_pointer_is_valid sspstrong uwtable
define internal i32 @round_to_2byte(i32 noundef %0, i32 noundef %1) #4 {
  %3 = alloca i32, align 4
  %4 = alloca i32, align 4
  %5 = alloca i32, align 4
  store i32 %0, ptr %3, align 4
  store i32 %1, ptr %4, align 4
  call void @llvm.lifetime.start.p0(i64 4, ptr %5) #5
  %6 = load i32, ptr %3, align 4
  %7 = load i32, ptr %4, align 4
  %8 = sub i32 %6, %7
  store i32 %8, ptr %5, align 4
  %9 = load i32, ptr %4, align 4
  %10 = load i32, ptr %5, align 4
  %11 = add i32 %10, 1
  %12 = and i32 %11, -2
  %13 = add i32 %9, %12
  call void @llvm.lifetime.end.p0(i64 4, ptr %5) #5
  ret i32 %13
}

; Function Attrs: nounwind null_pointer_is_valid sspstrong uwtable
define internal i32 @round_to_4byte(i32 noundef %0, i32 noundef %1) #4 {
  %3 = alloca i32, align 4
  %4 = alloca i32, align 4
  %5 = alloca i32, align 4
  store i32 %0, ptr %3, align 4
  store i32 %1, ptr %4, align 4
  call void @llvm.lifetime.start.p0(i64 4, ptr %5) #5
  %6 = load i32, ptr %3, align 4
  %7 = load i32, ptr %4, align 4
  %8 = sub i32 %6, %7
  store i32 %8, ptr %5, align 4
  %9 = load i32, ptr %4, align 4
  %10 = load i32, ptr %5, align 4
  %11 = add i32 %10, 3
  %12 = and i32 %11, -4
  %13 = add i32 %9, %12
  call void @llvm.lifetime.end.p0(i64 4, ptr %5) #5
  ret i32 %13
}

; Function Attrs: nounwind null_pointer_is_valid sspstrong uwtable
define internal i32 @round_to_8byte(i32 noundef %0, i32 noundef %1) #4 {
  %3 = alloca i32, align 4
  %4 = alloca i32, align 4
  %5 = alloca i32, align 4
  store i32 %0, ptr %3, align 4
  store i32 %1, ptr %4, align 4
  call void @llvm.lifetime.start.p0(i64 4, ptr %5) #5
  %6 = load i32, ptr %3, align 4
  %7 = load i32, ptr %4, align 4
  %8 = sub i32 %6, %7
  store i32 %8, ptr %5, align 4
  %9 = load i32, ptr %4, align 4
  %10 = load i32, ptr %5, align 4
  %11 = add i32 %10, 7
  %12 = and i32 %11, -8
  %13 = add i32 %9, %12
  call void @llvm.lifetime.end.p0(i64 4, ptr %5) #5
  ret i32 %13
}

; Function Attrs: null_pointer_is_valid sspstrong uwtable
define internal i32 @pad_according_to_type(i32 noundef %0, i32 noundef %1, i32 noundef %2, i8 noundef zeroext %3) #0 {
  %5 = alloca i32, align 4
  %6 = alloca i32, align 4
  %7 = alloca i32, align 4
  %8 = alloca i8, align 1
  store i32 %0, ptr %5, align 4
  store i32 %1, ptr %6, align 4
  store i32 %2, ptr %7, align 4
  store i8 %3, ptr %8, align 1
  %9 = load i8, ptr %8, align 1
  %10 = zext i8 %9 to i32
  switch i32 %10, label %23 [
    i32 121, label %24
    i32 100, label %11
    i32 116, label %11
    i32 120, label %11
    i32 40, label %11
    i32 123, label %11
    i32 103, label %24
    i32 104, label %24
    i32 105, label %15
    i32 117, label %15
    i32 98, label %15
    i32 110, label %19
    i32 113, label %19
    i32 115, label %24
    i32 118, label %24
    i32 111, label %24
  ]

11:                                               ; preds = %4, %4, %4, %4, %4
  %12 = load i32, ptr %5, align 4
  %13 = load i32, ptr %6, align 4
  %14 = call i32 @round_to_8byte(i32 noundef %12, i32 noundef %13)
  store i32 %14, ptr %5, align 4
  br label %24

15:                                               ; preds = %4, %4, %4
  %16 = load i32, ptr %5, align 4
  %17 = load i32, ptr %6, align 4
  %18 = call i32 @round_to_4byte(i32 noundef %16, i32 noundef %17)
  store i32 %18, ptr %5, align 4
  br label %24

19:                                               ; preds = %4, %4
  %20 = load i32, ptr %5, align 4
  %21 = load i32, ptr %6, align 4
  %22 = call i32 @round_to_2byte(i32 noundef %20, i32 noundef %21)
  store i32 %22, ptr %5, align 4
  br label %24

23:                                               ; preds = %4
  br label %24

24:                                               ; preds = %23, %4, %4, %4, %19, %15, %4, %4, %4, %11
  %25 = load i32, ptr %5, align 4
  %26 = load i32, ptr %7, align 4
  %27 = icmp sgt i32 %25, %26
  br i1 %27, label %28, label %30

28:                                               ; preds = %24
  %29 = load i32, ptr %7, align 4
  store i32 %29, ptr %5, align 4
  br label %30

30:                                               ; preds = %28, %24
  %31 = load i32, ptr %5, align 4
  ret i32 %31
}