; Function Attrs: mustprogress nofree norecurse nosync nounwind null_pointer_is_valid sspstrong willreturn memory(none) uwtable
define internal fastcc i32 @pad_according_to_type(i32 noundef %0, i32 noundef %1, i32 noundef %2, i8 noundef zeroext %3) unnamed_addr #3 {
  switch i8 %3, label %20 [
    i8 113, label %15
    i8 100, label %5
    i8 116, label %5
    i8 120, label %5
    i8 40, label %5
    i8 123, label %5
    i8 110, label %15
    i8 98, label %10
    i8 105, label %10
    i8 117, label %10
  ]

5:                                                ; preds = %4, %4, %4, %4, %4
  %6 = add i32 %0, 7
  %7 = sub i32 %6, %1
  %8 = and i32 %7, -8
  %9 = add i32 %8, %1
  br label %20

10:                                               ; preds = %4, %4, %4
  %11 = add i32 %0, 3
  %12 = sub i32 %11, %1
  %13 = and i32 %12, -4
  %14 = add i32 %13, %1
  br label %20

15:                                               ; preds = %4, %4
  %16 = add i32 %0, 1
  %17 = sub i32 %16, %1
  %18 = and i32 %17, -2
  %19 = add i32 %18, %1
  br label %20

20:                                               ; preds = %4, %15, %10, %5
  %.0 = phi i32 [ %0, %4 ], [ %14, %10 ], [ %9, %5 ], [ %19, %15 ]
  %spec.select = tail call i32 @llvm.smin.i32(i32 %.0, i32 %2)
  ret i32 %spec.select
}